target datalayout = "e-m:e-p270:32:32-p271:32:32-p272:64:64-i64:64-i128:128-f80:128-n8:16:32:64-S128"
target triple = "x86_64-pc-linux-gnu"

%struct.lzma_next_coder_s = type { ptr, i64, i64, ptr, ptr, ptr, ptr, ptr, ptr, ptr }
%struct.lzma_alone_coder = type { %struct.lzma_next_coder_s, i32, i8, i64, i64, i64, i64, %struct.lzma_options_lzma }
%struct.lzma_options_lzma = type { i32, ptr, i32, i32, i32, i32, i32, i32, i32, i32, i32, i32, i32, i32, i32, i32, i32, i32, i32, i32, i32, i32, ptr, ptr }

; Function Attrs: nounwind uwtable
define dso_local i32 @lzma_alone_decoder_init(ptr noundef %0, ptr noundef %1, i64 noundef %2, i1 noundef zeroext %3) #0 {
  %5 = alloca i32, align 4
  %6 = alloca ptr, align 8
  %7 = alloca ptr, align 8
  %8 = alloca i64, align 8
  %9 = alloca i8, align 1
  %10 = alloca ptr, align 8
  %11 = alloca i32, align 4
  %12 = alloca %struct.lzma_next_coder_s, align 8
  store ptr %0, ptr %6, align 8, !tbaa !4
  store ptr %1, ptr %7, align 8, !tbaa !9
  store i64 %2, ptr %8, align 8, !tbaa !10
  %13 = zext i1 %3 to i8
  store i8 %13, ptr %9, align 1, !tbaa !12
  br label %14

14:                                               ; preds = %4
  %15 = load ptr, ptr %6, align 8, !tbaa !4
  %16 = getelementptr inbounds nuw %struct.lzma_next_coder_s, ptr %15, i32 0, i32 2
  %17 = load i64, ptr %16, align 8, !tbaa !14
  %18 = icmp ne i64 ptrtoint (ptr @lzma_alone_decoder_init to i64), %17
  br i1 %18, label %19, label %22

19:                                               ; preds = %14
  %20 = load ptr, ptr %6, align 8, !tbaa !4
  %21 = load ptr, ptr %7, align 8, !tbaa !9
  call void @lzma_next_end(ptr noundef %20, ptr noundef %21)
  br label %22

22:                                               ; preds = %19, %14
  %23 = load ptr, ptr %6, align 8, !tbaa !4
  %24 = getelementptr inbounds nuw %struct.lzma_next_coder_s, ptr %23, i32 0, i32 2
  store i64 ptrtoint (ptr @lzma_alone_decoder_init to i64), ptr %24, align 8, !tbaa !14
  br label %25

25:                                               ; preds = %22
  call void @llvm.lifetime.start.p0(i64 8, ptr %10) #6
  %26 = load ptr, ptr %6, align 8, !tbaa !4
  %27 = getelementptr inbounds nuw %struct.lzma_next_coder_s, ptr %26, i32 0, i32 0
  %28 = load ptr, ptr %27, align 8, !tbaa !16
  store ptr %28, ptr %10, align 8, !tbaa !9
  %29 = load ptr, ptr %10, align 8, !tbaa !9
  %30 = icmp eq ptr %29, null
  br i1 %30, label %31, label %50

31:                                               ; preds = %25
  %32 = load ptr, ptr %7, align 8, !tbaa !9
  %33 = call ptr @lzma_alloc(i64 noundef 232, ptr noundef %32)
  store ptr %33, ptr %10, align 8, !tbaa !9
  %34 = load ptr, ptr %10, align 8, !tbaa !9
  %35 = icmp eq ptr %34, null
  br i1 %35, label %36, label %37

36:                                               ; preds = %31
  store i32 5, ptr %5, align 4
  store i32 1, ptr %11, align 4
  br label %82

37:                                               ; preds = %31
  %38 = load ptr, ptr %10, align 8, !tbaa !9
  %39 = load ptr, ptr %6, align 8, !tbaa !4
  %40 = getelementptr inbounds nuw %struct.lzma_next_coder_s, ptr %39, i32 0, i32 0
  store ptr %38, ptr %40, align 8, !tbaa !16
  %41 = load ptr, ptr %6, align 8, !tbaa !4
  %42 = getelementptr inbounds nuw %struct.lzma_next_coder_s, ptr %41, i32 0, i32 3
  store ptr @alone_decode, ptr %42, align 8, !tbaa !17
  %43 = load ptr, ptr %6, align 8, !tbaa !4
  %44 = getelementptr inbounds nuw %struct.lzma_next_coder_s, ptr %43, i32 0, i32 4
  store ptr @alone_decoder_end, ptr %44, align 8, !tbaa !18
  %45 = load ptr, ptr %6, align 8, !tbaa !4
  %46 = getelementptr inbounds nuw %struct.lzma_next_coder_s, ptr %45, i32 0, i32 7
  store ptr @alone_decoder_memconfig, ptr %46, align 8, !tbaa !19
  %47 = load ptr, ptr %10, align 8, !tbaa !9
  %48 = getelementptr inbounds nuw %struct.lzma_alone_coder, ptr %47, i32 0, i32 0
  call void @llvm.memset.p0.i64(ptr align 8 %12, i8 0, i64 80, i1 false)
  %49 = getelementptr inbounds nuw %struct.lzma_next_coder_s, ptr %12, i32 0, i32 1
  store i64 -1, ptr %49, align 8, !tbaa !20
  call void @llvm.memcpy.p0.p0.i64(ptr align 8 %48, ptr align 8 %12, i64 80, i1 false), !tbaa.struct !21
  br label %50

50:                                               ; preds = %37, %25
  %51 = load ptr, ptr %10, align 8, !tbaa !9
  %52 = getelementptr inbounds nuw %struct.lzma_alone_coder, ptr %51, i32 0, i32 1
  store i32 0, ptr %52, align 8, !tbaa !22
  %53 = load i8, ptr %9, align 1, !tbaa !12, !range !27, !noundef !28
  %54 = trunc i8 %53 to i1
  %55 = load ptr, ptr %10, align 8, !tbaa !9
  %56 = getelementptr inbounds nuw %struct.lzma_alone_coder, ptr %55, i32 0, i32 2
  %57 = zext i1 %54 to i8
  store i8 %57, ptr %56, align 4, !tbaa !29
  %58 = load ptr, ptr %10, align 8, !tbaa !9
  %59 = getelementptr inbounds nuw %struct.lzma_alone_coder, ptr %58, i32 0, i32 3
  store i64 0, ptr %59, align 8, !tbaa !30
  %60 = load ptr, ptr %10, align 8, !tbaa !9
  %61 = getelementptr inbounds nuw %struct.lzma_alone_coder, ptr %60, i32 0, i32 7
  %62 = getelementptr inbounds nuw %struct.lzma_options_lzma, ptr %61, i32 0, i32 0
  store i32 0, ptr %62, align 8, !tbaa !31
  %63 = load ptr, ptr %10, align 8, !tbaa !9
  %64 = getelementptr inbounds nuw %struct.lzma_alone_coder, ptr %63, i32 0, i32 7
  %65 = getelementptr inbounds nuw %struct.lzma_options_lzma, ptr %64, i32 0, i32 1
  store ptr null, ptr %65, align 8, !tbaa !32
  %66 = load ptr, ptr %10, align 8, !tbaa !9
  %67 = getelementptr inbounds nuw %struct.lzma_alone_coder, ptr %66, i32 0, i32 7
  %68 = getelementptr inbounds nuw %struct.lzma_options_lzma, ptr %67, i32 0, i32 2
  store i32 0, ptr %68, align 8, !tbaa !33
  %69 = load ptr, ptr %10, align 8, !tbaa !9
  %70 = getelementptr inbounds nuw %struct.lzma_alone_coder, ptr %69, i32 0, i32 4
  store i64 0, ptr %70, align 8, !tbaa !34
  %71 = load i64, ptr %8, align 8, !tbaa !10
  %72 = icmp ugt i64 1, %71
  br i1 %72, label %73, label %74

73:                                               ; preds = %50
  br label %76

74:                                               ; preds = %50
  %75 = load i64, ptr %8, align 8, !tbaa !10
  br label %76

76:                                               ; preds = %74, %73
  %77 = phi i64 [ 1, %73 ], [ %75, %74 ]
  %78 = load ptr, ptr %10, align 8, !tbaa !9
  %79 = getelementptr inbounds nuw %struct.lzma_alone_coder, ptr %78, i32 0, i32 5
  store i64 %77, ptr %79, align 8, !tbaa !35
  %80 = load ptr, ptr %10, align 8, !tbaa !9
  %81 = getelementptr inbounds nuw %struct.lzma_alone_coder, ptr %80, i32 0, i32 6
  store i64 32768, ptr %81, align 8, !tbaa !36
  store i32 0, ptr %5, align 4
  store i32 1, ptr %11, align 4
  br label %82

82:                                               ; preds = %76, %36
  call void @llvm.lifetime.end.p0(i64 8, ptr %10) #6
  %83 = load i32, ptr %5, align 4
  ret i32 %83
}