; Function Attrs: nounwind uwtable
define dso_local range(i32 0, 6) i32 @lzma_alone_decoder_init(ptr noundef %0, ptr noundef %1, i64 noundef %2, i1 noundef zeroext %3) #0 {
  %5 = zext i1 %3 to i8
  %6 = getelementptr inbounds nuw i8, ptr %0, i64 16
  %7 = load i64, ptr %6, align 8, !tbaa !4
  %.not = icmp eq i64 %7, ptrtoint (ptr @lzma_alone_decoder_init to i64)
  br i1 %.not, label %9, label %8

8:                                                ; preds = %4
  tail call void @lzma_next_end(ptr noundef nonnull %0, ptr noundef %1) #7
  br label %9

9:                                                ; preds = %8, %4
  store i64 ptrtoint (ptr @lzma_alone_decoder_init to i64), ptr %6, align 8, !tbaa !4
  %10 = load ptr, ptr %0, align 8, !tbaa !10
  %11 = icmp eq ptr %10, null
  br i1 %11, label %12, label %19

12:                                               ; preds = %9
  %13 = tail call ptr @lzma_alloc(i64 noundef 232, ptr noundef %1) #7
  %14 = icmp eq ptr %13, null
  br i1 %14, label %29, label %15

15:                                               ; preds = %12
  store ptr %13, ptr %0, align 8, !tbaa !10
  %16 = getelementptr inbounds nuw i8, ptr %0, i64 24
  store ptr @alone_decode, ptr %16, align 8, !tbaa !11
  %17 = getelementptr inbounds nuw i8, ptr %0, i64 32
  store ptr @alone_decoder_end, ptr %17, align 8, !tbaa !12
  %18 = getelementptr inbounds nuw i8, ptr %0, i64 56
  store ptr @alone_decoder_memconfig, ptr %18, align 8, !tbaa !13
  store ptr null, ptr %13, align 8, !tbaa !14
  %.sroa.2.0..sroa_idx = getelementptr inbounds nuw i8, ptr %13, i64 8
  store i64 -1, ptr %.sroa.2.0..sroa_idx, align 8, !tbaa !15
  %.sroa.3.0..sroa_idx = getelementptr inbounds nuw i8, ptr %13, i64 16
  tail call void @llvm.memset.p0.i64(ptr noundef nonnull align 8 dereferenceable(64) %.sroa.3.0..sroa_idx, i8 0, i64 64, i1 false)
  br label %19

19:                                               ; preds = %15, %9
  %.026 = phi ptr [ %13, %15 ], [ %10, %9 ]
  %20 = getelementptr inbounds nuw i8, ptr %.026, i64 80
  store i32 0, ptr %20, align 8, !tbaa !16
  %21 = getelementptr inbounds nuw i8, ptr %.026, i64 84
  store i8 %5, ptr %21, align 4, !tbaa !22
  %22 = getelementptr inbounds nuw i8, ptr %.026, i64 88
  %23 = getelementptr inbounds nuw i8, ptr %.026, i64 120
  store i32 0, ptr %23, align 8, !tbaa !23
  %24 = getelementptr inbounds nuw i8, ptr %.026, i64 128
  store ptr null, ptr %24, align 8, !tbaa !24
  %25 = getelementptr inbounds nuw i8, ptr %.026, i64 136
  store i32 0, ptr %25, align 8, !tbaa !25
  %26 = tail call i64 @llvm.umax.i64(i64 %2, i64 1)
  %27 = getelementptr inbounds nuw i8, ptr %.026, i64 104
  tail call void @llvm.memset.p0.i64(ptr noundef nonnull align 8 dereferenceable(16) %22, i8 0, i64 16, i1 false)
  store i64 %26, ptr %27, align 8, !tbaa !26
  %28 = getelementptr inbounds nuw i8, ptr %.026, i64 112
  store i64 32768, ptr %28, align 8, !tbaa !27
  br label %29

29:                                               ; preds = %12, %19
  %.0 = phi i32 [ 0, %19 ], [ 5, %12 ]
  ret i32 %.0
}